; Function Attrs: null_pointer_is_valid sspstrong uwtable
define internal fastcc void @decode_SystemExceptionReplyBody(ptr noundef %0, ptr noundef %1, ptr noundef captures(none) %2, i1 noundef zeroext %3) unnamed_addr #0 {
  %.promoted.i.i = load i32, ptr %2, align 4
  %5 = and i32 %.promoted.i.i, 3
  %.not9.i.i = icmp eq i32 %5, 0
  br i1 %.not9.i.i, label %7, label %.lr.ph.preheader.i.i

.lr.ph.preheader.i.i:                             ; preds = %4
  %6 = or i32 %.promoted.i.i, -4
  %sub.i = sub i32 %.promoted.i.i, %6
  store i32 %sub.i, ptr %2, align 4
  br label %7

7:                                                ; preds = %.lr.ph.preheader.i.i, %4
  %.lcssa.i.i = phi i32 [ %sub.i, %.lr.ph.preheader.i.i ], [ %.promoted.i.i, %4 ]
  br i1 %3, label %8, label %10

8:                                                ; preds = %7
  %9 = tail call i32 @tvb_get_ntohl(ptr noundef %0, i32 noundef %.lcssa.i.i)
  br label %get_CDR_string.exit

10:                                               ; preds = %7
  %11 = tail call i32 @tvb_get_letohl(ptr noundef %0, i32 noundef %.lcssa.i.i)
  br label %get_CDR_string.exit

get_CDR_string.exit:                              ; preds = %8, %10
  %12 = phi i32 [ %9, %8 ], [ %11, %10 ]
  %13 = load i32, ptr %2, align 4
  %14 = add i32 %13, 4
  store i32 %14, ptr %2, align 4
  %15 = tail call i32 @tvb_reported_length_remaining(ptr noundef %0, i32 noundef %13)
  %spec.select.i = tail call i32 @llvm.umin.i32(i32 %12, i32 %15)
  %16 = tail call ptr @wmem_packet_scope()
  %17 = load i32, ptr %2, align 4
  %18 = tail call ptr @tvb_get_string_enc(ptr noundef %16, ptr noundef %0, i32 noundef %17, i32 noundef %spec.select.i, i32 noundef 10)
  %19 = load i32, ptr %2, align 4
  %20 = add i32 %19, %spec.select.i
  store i32 %20, ptr %2, align 4
  %21 = load i32, ptr @hf_giop_exception_len, align 4
  %22 = add i32 %20, -4
  %23 = tail call ptr @proto_tree_add_uint(ptr noundef %1, i32 noundef %21, ptr noundef %0, i32 noundef %22, i32 noundef 4, i32 noundef %spec.select.i)
  %.not = icmp eq i32 %spec.select.i, 0
  br i1 %.not, label %29, label %24

24:                                               ; preds = %get_CDR_string.exit
  %25 = load i32, ptr @hf_giop_exception_id, align 4
  %26 = load i32, ptr %2, align 4
  %27 = sub i32 %26, %spec.select.i
  %28 = tail call ptr @proto_tree_add_string(ptr noundef %1, i32 noundef %25, ptr noundef %0, i32 noundef %27, i32 noundef %spec.select.i, ptr noundef %18)
  br label %29

29:                                               ; preds = %24, %get_CDR_string.exit
  %.promoted.i = load i32, ptr %2, align 4
  %30 = and i32 %.promoted.i, 3
  %.not9.i = icmp eq i32 %30, 0
  br i1 %.not9.i, label %32, label %.lr.ph.preheader.i

.lr.ph.preheader.i:                               ; preds = %29
  %31 = or i32 %.promoted.i, -4
  %sub = sub i32 %.promoted.i, %31
  store i32 %sub, ptr %2, align 4
  br label %32

32:                                               ; preds = %.lr.ph.preheader.i, %29
  %.lcssa.i = phi i32 [ %sub, %.lr.ph.preheader.i ], [ %.promoted.i, %29 ]
  br i1 %3, label %33, label %35

33:                                               ; preds = %32
  %34 = tail call i32 @tvb_get_ntohl(ptr noundef %0, i32 noundef %.lcssa.i)
  br label %get_CDR_ulong.exit

35:                                               ; preds = %32
  %36 = tail call i32 @tvb_get_letohl(ptr noundef %0, i32 noundef %.lcssa.i)
  br label %get_CDR_ulong.exit

get_CDR_ulong.exit:                               ; preds = %33, %35
  %37 = phi i32 [ %34, %33 ], [ %36, %35 ]
  %38 = load i32, ptr %2, align 4
  %39 = add i32 %38, 4
  %40 = and i32 %38, 3
  %.not9.i30 = icmp eq i32 %40, 0
  %41 = xor i32 %40, 3
  %42 = add i32 %38, 5
  %43 = add i32 %42, %41
  %.lcssa.i33 = select i1 %.not9.i30, i32 %39, i32 %43
  store i32 %.lcssa.i33, ptr %2, align 4
  br i1 %3, label %44, label %46

44:                                               ; preds = %get_CDR_ulong.exit
  %45 = tail call i32 @tvb_get_ntohl(ptr noundef %0, i32 noundef %.lcssa.i33)
  br label %get_CDR_ulong.exit34

46:                                               ; preds = %get_CDR_ulong.exit
  %47 = tail call i32 @tvb_get_letohl(ptr noundef %0, i32 noundef %.lcssa.i33)
  br label %get_CDR_ulong.exit34

get_CDR_ulong.exit34:                             ; preds = %44, %46
  %48 = phi i32 [ %45, %44 ], [ %47, %46 ]
  %49 = load i32, ptr %2, align 4
  %50 = add i32 %49, 4
  store i32 %50, ptr %2, align 4
  %51 = load i32, ptr @hf_giop_minor_code_value, align 4
  %52 = add i32 %49, -4
  %53 = tail call ptr @proto_tree_add_uint(ptr noundef %1, i32 noundef %51, ptr noundef %0, i32 noundef %52, i32 noundef 4, i32 noundef %37)
  %54 = load i32, ptr @hf_giop_completion_status, align 4
  %55 = load i32, ptr %2, align 4
  %56 = add i32 %55, -4
  %57 = tail call ptr @proto_tree_add_uint(ptr noundef %1, i32 noundef %54, ptr noundef %0, i32 noundef %56, i32 noundef 4, i32 noundef %48)
  ret void
}